; Function Attrs: mustprogress uwtable
define dso_local void @_Z10accumulateRSt6vectorIdSaIdEERKS1_(ptr noundef nonnull align 8 dereferenceable(24) %0, ptr noundef nonnull readonly align 8 captures(none) dereferenceable(24) %1) local_unnamed_addr #4 personality ptr @__gxx_personality_v0 {
  %3 = getelementptr inbounds nuw i8, ptr %0, i64 8
  %4 = load ptr, ptr %3, align 8, !tbaa !43
  %5 = load ptr, ptr %0, align 8, !tbaa !49
  %6 = ptrtoint ptr %4 to i64
  %7 = ptrtoint ptr %5 to i64
  %8 = sub i64 %6, %7
  %9 = ashr exact i64 %8, 3
  %10 = getelementptr inbounds nuw i8, ptr %1, i64 8
  %11 = load ptr, ptr %10, align 8, !tbaa !43
  %12 = load ptr, ptr %1, align 8, !tbaa !49
  %13 = ptrtoint ptr %11 to i64
  %14 = ptrtoint ptr %12 to i64
  %15 = sub i64 %13, %14
  %16 = ashr exact i64 %15, 3
  %17 = icmp ult i64 %9, %16
  br i1 %17, label %_ZNSt6vectorIdSaIdEE6resizeEm.exit, label %19

_ZNSt6vectorIdSaIdEE6resizeEm.exit:               ; preds = %2
  %18 = sub nuw nsw i64 %16, %9
  tail call void @_ZNSt6vectorIdSaIdEE17_M_default_appendEm(ptr noundef nonnull align 8 dereferenceable(24) %0, i64 noundef %18)
  %.pre = load ptr, ptr %10, align 8, !tbaa !43
  %.pre11 = load ptr, ptr %1, align 8, !tbaa !49
  %.pre12 = ptrtoint ptr %.pre to i64
  %.pre13 = ptrtoint ptr %.pre11 to i64
  %.pre15 = sub i64 %.pre12, %.pre13
  %.pre17 = ashr exact i64 %.pre15, 3
  br label %19

19:                                               ; preds = %_ZNSt6vectorIdSaIdEE6resizeEm.exit, %2
  %.pre-phi18 = phi i64 [ %.pre17, %_ZNSt6vectorIdSaIdEE6resizeEm.exit ], [ %16, %2 ]
  %20 = phi ptr [ %.pre11, %_ZNSt6vectorIdSaIdEE6resizeEm.exit ], [ %12, %2 ]
  %21 = phi ptr [ %.pre, %_ZNSt6vectorIdSaIdEE6resizeEm.exit ], [ %11, %2 ]
  %.not = icmp eq ptr %21, %20
  br i1 %.not, label %._crit_edge, label %.lr.ph

.lr.ph:                                           ; preds = %19
  %22 = load ptr, ptr %0, align 8, !tbaa !49
  %umax = tail call i64 @llvm.umax.i64(i64 %.pre-phi18, i64 1)
  br label %23

._crit_edge:                                      ; preds = %23, %19
  ret void

23:                                               ; preds = %.lr.ph, %23
  %.010 = phi i64 [ 0, %.lr.ph ], [ %29, %23 ]
  %24 = getelementptr inbounds nuw double, ptr %20, i64 %.010
  %25 = load double, ptr %24, align 8, !tbaa !47
  %26 = getelementptr inbounds nuw double, ptr %22, i64 %.010
  %27 = load double, ptr %26, align 8, !tbaa !47
  %28 = fadd double %25, %27
  store double %28, ptr %26, align 8, !tbaa !47
  %29 = add nuw i64 %.010, 1
  %exitcond.not = icmp eq i64 %29, %umax
  br i1 %exitcond.not, label %._crit_edge, label %23, !llvm.loop !132
}